target datalayout = "e-m:e-p270:32:32-p271:32:32-p272:64:64-i64:64-i128:128-f80:128-n8:16:32:64-S128"
target triple = "x86_64-pc-linux-gnu"

%struct.QArrayData = type { %"class.QtPrivate::RefCount", i32, i32, i64 }
%"class.QtPrivate::RefCount" = type { %class.QBasicAtomicInteger }
%class.QBasicAtomicInteger = type { %"struct.std::atomic" }
%"struct.std::atomic" = type { %"struct.std::__atomic_base" }
%"struct.std::__atomic_base" = type { i32 }
%class.QByteArray = type { ptr }
%"class.vcg::tri::io::VertexGrid" = type { i32, i32, %class.QByteArray }

@_ZN10QArrayData11shared_nullE = external global [2 x %struct.QArrayData], align 16

; Function Attrs: mustprogress nounwind uwtable
define linkonce_odr noundef ptr @_ZN10QArrayData10sharedNullEv() #0 comdat align 2 {
  ret ptr @_ZN10QArrayData11shared_nullE
}

; Function Attrs: mustprogress nounwind uwtable
define linkonce_odr noundef ptr @_ZN15QTypedArrayDataIcE10sharedNullEv() #0 comdat align 2 {
  %1 = call noundef ptr @_ZN10QArrayData10sharedNullEv() #4
  ret ptr %1
}

; Function Attrs: mustprogress nounwind uwtable
define linkonce_odr void @_ZN10QByteArrayC2Ev(ptr noundef nonnull align 8 dereferenceable(8) %0) unnamed_addr #0 comdat align 2 {
  %2 = alloca ptr, align 8
  store ptr %0, ptr %2, align 8
  %3 = load ptr, ptr %2, align 8
  %4 = getelementptr inbounds %class.QByteArray, ptr %3, i32 0, i32 0
  %5 = call noundef ptr @_ZN15QTypedArrayDataIcE10sharedNullEv() #4
  store ptr %5, ptr %4, align 8
  ret void
}

; Function Attrs: mustprogress uwtable
define void @_ZN3vcg3tri2io10VertexGridC2Eii(ptr noundef nonnull align 8 dereferenceable(16) %0, i32 noundef %1, i32 noundef %2) unnamed_addr #5 align 2 personality ptr @__gxx_personality_v0 {
  %4 = alloca ptr, align 8
  %5 = alloca i32, align 4
  %6 = alloca i32, align 4
  %7 = alloca ptr, align 8
  %8 = alloca i32, align 4
  store ptr %0, ptr %4, align 8
  store i32 %1, ptr %5, align 4
  store i32 %2, ptr %6, align 4
  %9 = load ptr, ptr %4, align 8
  %10 = getelementptr inbounds %"class.vcg::tri::io::VertexGrid", ptr %9, i32 0, i32 0
  %11 = load i32, ptr %5, align 4
  store i32 %11, ptr %10, align 8
  %12 = getelementptr inbounds %"class.vcg::tri::io::VertexGrid", ptr %9, i32 0, i32 1
  %13 = load i32, ptr %6, align 4
  store i32 %13, ptr %12, align 4
  %14 = getelementptr inbounds %"class.vcg::tri::io::VertexGrid", ptr %9, i32 0, i32 2
  call void @_ZN10QByteArrayC2Ev(ptr noundef nonnull align 8 dereferenceable(8) %14) #4
  %15 = getelementptr inbounds %"class.vcg::tri::io::VertexGrid", ptr %9, i32 0, i32 2
  %16 = getelementptr inbounds %"class.vcg::tri::io::VertexGrid", ptr %9, i32 0, i32 0
  %17 = load i32, ptr %16, align 8
  %18 = getelementptr inbounds %"class.vcg::tri::io::VertexGrid", ptr %9, i32 0, i32 1
  %19 = load i32, ptr %18, align 4
  %20 = mul nsw i32 %17, %19
  %21 = sext i32 %20 to i64
  %22 = mul i64 %21, 20
  %23 = trunc i64 %22 to i32
  invoke void @_ZN10QByteArray6resizeEi(ptr noundef nonnull align 8 dereferenceable(8) %15, i32 noundef %23)
          to label %24 unwind label %28

24:                                               ; preds = %3
  %25 = getelementptr inbounds %"class.vcg::tri::io::VertexGrid", ptr %9, i32 0, i32 2
  %26 = invoke noundef nonnull align 8 dereferenceable(8) ptr @_ZN10QByteArray4fillEci(ptr noundef nonnull align 8 dereferenceable(8) %25, i8 noundef signext 48, i32 noundef -1)
          to label %27 unwind label %28

27:                                               ; preds = %24
  ret void

28:                                               ; preds = %24, %3
  %29 = landingpad { ptr, i32 }
          cleanup
  %30 = extractvalue { ptr, i32 } %29, 0
  store ptr %30, ptr %7, align 8
  %31 = extractvalue { ptr, i32 } %29, 1
  store i32 %31, ptr %8, align 4
  call void @_ZN10QByteArrayD2Ev(ptr noundef nonnull align 8 dereferenceable(8) %14) #4
  br label %32

32:                                               ; preds = %28
  %33 = load ptr, ptr %7, align 8
  %34 = load i32, ptr %8, align 4
  %35 = insertvalue { ptr, i32 } poison, ptr %33, 0
  %36 = insertvalue { ptr, i32 } %35, i32 %34, 1
  resume { ptr, i32 } %36
}