; Function Attrs: mustprogress uwtable
define void @_ZN3vcg3tri2io10VertexGridC2Eii(ptr noundef nonnull align 8 dereferenceable(16) %0, i32 noundef %1, i32 noundef %2) unnamed_addr #9 align 2 personality ptr @__gxx_personality_v0 {
  store i32 %1, ptr %0, align 8
  %4 = getelementptr inbounds i8, ptr %0, i64 4
  store i32 %2, ptr %4, align 4
  %5 = getelementptr inbounds i8, ptr %0, i64 8
  store ptr @_ZN10QArrayData11shared_nullE, ptr %5, align 8
  %6 = mul i32 %1, 20
  %7 = mul i32 %6, %2
  invoke void @_ZN10QByteArray6resizeEi(ptr noundef nonnull align 8 dereferenceable(8) %5, i32 noundef %7)
          to label %8 unwind label %11

8:                                                ; preds = %3
  %9 = invoke noundef nonnull align 8 dereferenceable(8) ptr @_ZN10QByteArray4fillEci(ptr noundef nonnull align 8 dereferenceable(8) %5, i8 noundef signext 48, i32 noundef -1)
          to label %10 unwind label %11

10:                                               ; preds = %8
  ret void

11:                                               ; preds = %8, %3
  %12 = landingpad { ptr, i32 }
          cleanup
  tail call void @_ZN10QByteArrayD2Ev(ptr noundef nonnull align 8 dereferenceable(8) %5) #25
  resume { ptr, i32 } %12
}